target datalayout = "e-m:e-p270:32:32-p271:32:32-p272:64:64-i64:64-i128:128-f80:128-n8:16:32:64-S128"
target triple = "x86_64-pc-linux-gnu"

%struct.CVodeMemRec = type { ptr, double, ptr, ptr, i32, i32, double, double, ptr, i32, i32, ptr, ptr, i32, i32, ptr, i32, i32, double, double, ptr, i32, i32, i32, i32, ptr, ptr, ptr, i32, i32, ptr, ptr, ptr, i32, double, i32, i32, double, ptr, ptr, ptr, i32, ptr, ptr, i32, i32, i32, double, ptr, ptr, ptr, [13 x ptr], ptr, ptr, ptr, ptr, ptr, ptr, ptr, ptr, ptr, [13 x ptr], ptr, ptr, ptr, ptr, [13 x ptr], ptr, ptr, ptr, ptr, ptr, i32, [13 x ptr], ptr, ptr, ptr, ptr, ptr, i32, i32, double, i32, i32, i32, i32, i32, double, double, double, double, double, double, double, double, [14 x double], [6 x double], [13 x double], double, double, double, double, double, double, double, double, i32, double, double, i32, double, double, ptr, i32, i64, i32, i32, i32, double, double, double, double, double, double, double, double, double, double, double, double, i64, i32, i64, i64, i64, i64, i64, i64, i64, i64, i64, ptr, i64, i64, ptr, i64, i64, ptr, i64, i64, i64, i64, i64, i64, i32, double, double, double, i64, i64, i64, i64, i64, i64, ptr, i32, ptr, i32, ptr, i32, ptr, i32, i32, i64, i32, ptr, i32, ptr, ptr, ptr, ptr, ptr, ptr, i32, i32, ptr, ptr, ptr, ptr, ptr, i64, double, i32, i32, i64, double, double, double, i32, i32, double, i32, i32, i32, i32, i32, i32, i32, i32, i32, i32, i32, i32, i32, i32, i32, i32, ptr, i64, i32, [6 x [4 x double]], i32, i64, ptr, i32, ptr, ptr, double, double, double, ptr, ptr, ptr, double, double, i32, i32, i64, ptr, i32, ptr, i32, i32, [13 x double], ptr, ptr, ptr, i32, ptr, i32 }

@.str = private unnamed_addr constant [115 x i8] c"generated/home/dtcxzyw/WorkSpace/Projects/compilers/llvm-opt-benchmark/bench/sundials/sundials/src/cvodes/cvodes.c\00", align 1
@.str.4 = private unnamed_addr constant [26 x i8] c"cvode_mem = NULL illegal.\00", align 1
@.str.23 = private unnamed_addr constant [44 x i8] c"Forward sensitivity analysis not activated.\00", align 1
@.str.28 = private unnamed_addr constant [21 x i8] c"yQS0 = NULL illegal.\00", align 1
@__func__.CVodeQuadSensReInit = private unnamed_addr constant [20 x i8] c"CVodeQuadSensReInit\00", align 1
@.str.29 = private unnamed_addr constant [69 x i8] c"Forward sensitivity analysis for quadrature variables not activated.\00", align 1

; Function Attrs: nounwind uwtable
define i32 @CVodeQuadSensReInit(ptr noundef %0, ptr noundef %1) #0 {
  %3 = alloca i32, align 4
  %4 = alloca ptr, align 8
  %5 = alloca ptr, align 8
  %6 = alloca ptr, align 8
  %7 = alloca i32, align 4
  %8 = alloca i32, align 4
  %9 = alloca i32, align 4
  store ptr %0, ptr %4, align 8, !tbaa !153
  store ptr %1, ptr %5, align 8, !tbaa !152
  call void @llvm.lifetime.start.p0(i64 8, ptr %6) #10
  call void @llvm.lifetime.start.p0(i64 4, ptr %7) #10
  call void @llvm.lifetime.start.p0(i64 4, ptr %8) #10
  %10 = load ptr, ptr %4, align 8, !tbaa !153
  %11 = icmp eq ptr %10, null
  br i1 %11, label %12, label %13

12:                                               ; preds = %2
  call void (ptr, i32, i32, ptr, ptr, ptr, ...) @cvProcessError(ptr noundef null, i32 noundef -21, i32 noundef 2349, ptr noundef @__func__.CVodeQuadSensReInit, ptr noundef @.str, ptr noundef @.str.4)
  store i32 -21, ptr %3, align 4
  store i32 1, ptr %9, align 4
  br label %75

13:                                               ; preds = %2
  %14 = load ptr, ptr %4, align 8, !tbaa !153
  store ptr %14, ptr %6, align 8, !tbaa !10
  %15 = load ptr, ptr %6, align 8, !tbaa !10
  %16 = getelementptr inbounds nuw %struct.CVodeMemRec, ptr %15, i32 0, i32 22
  %17 = load i32, ptr %16, align 4, !tbaa !80
  %18 = icmp ne i32 %17, 0
  br i1 %18, label %21, label %19

19:                                               ; preds = %13
  %20 = load ptr, ptr %6, align 8, !tbaa !10
  call void (ptr, i32, i32, ptr, ptr, ptr, ...) @cvProcessError(ptr noundef %20, i32 noundef -22, i32 noundef 2357, ptr noundef @__func__.CVodeQuadSensReInit, ptr noundef @.str, ptr noundef @.str.23)
  store i32 -40, ptr %3, align 4
  store i32 1, ptr %9, align 4
  br label %75

21:                                               ; preds = %13
  %22 = load ptr, ptr %6, align 8, !tbaa !10
  %23 = getelementptr inbounds nuw %struct.CVodeMemRec, ptr %22, i32 0, i32 216
  %24 = load i32, ptr %23, align 4, !tbaa !122
  %25 = icmp eq i32 %24, 0
  br i1 %25, label %26, label %28

26:                                               ; preds = %21
  %27 = load ptr, ptr %6, align 8, !tbaa !10
  call void (ptr, i32, i32, ptr, ptr, ptr, ...) @cvProcessError(ptr noundef %27, i32 noundef -50, i32 noundef 2365, ptr noundef @__func__.CVodeQuadSensReInit, ptr noundef @.str, ptr noundef @.str.29)
  store i32 -50, ptr %3, align 4
  store i32 1, ptr %9, align 4
  br label %75

28:                                               ; preds = %21
  %29 = load ptr, ptr %5, align 8, !tbaa !152
  %30 = icmp eq ptr %29, null
  br i1 %30, label %31, label %33

31:                                               ; preds = %28
  %32 = load ptr, ptr %6, align 8, !tbaa !10
  call void (ptr, i32, i32, ptr, ptr, ptr, ...) @cvProcessError(ptr noundef %32, i32 noundef -22, i32 noundef 2373, ptr noundef @__func__.CVodeQuadSensReInit, ptr noundef @.str, ptr noundef @.str.28)
  store i32 -22, ptr %3, align 4
  store i32 1, ptr %9, align 4
  br label %75

33:                                               ; preds = %28
  store i32 0, ptr %7, align 4, !tbaa !3
  br label %34

34:                                               ; preds = %47, %33
  %35 = load i32, ptr %7, align 4, !tbaa !3
  %36 = load ptr, ptr %6, align 8, !tbaa !10
  %37 = getelementptr inbounds nuw %struct.CVodeMemRec, ptr %36, i32 0, i32 23
  %38 = load i32, ptr %37, align 8, !tbaa !230
  %39 = icmp slt i32 %35, %38
  br i1 %39, label %40, label %50

40:                                               ; preds = %34
  %41 = load ptr, ptr %6, align 8, !tbaa !10
  %42 = getelementptr inbounds nuw %struct.CVodeMemRec, ptr %41, i32 0, i32 244
  %43 = load ptr, ptr %42, align 8, !tbaa !164
  %44 = load i32, ptr %7, align 4, !tbaa !3
  %45 = sext i32 %44 to i64
  %46 = getelementptr inbounds double, ptr %43, i64 %45
  store double 1.000000e+00, ptr %46, align 8, !tbaa !150
  br label %47

47:                                               ; preds = %40
  %48 = load i32, ptr %7, align 4, !tbaa !3
  %49 = add nsw i32 %48, 1
  store i32 %49, ptr %7, align 4, !tbaa !3
  br label %34

50:                                               ; preds = %34
  %51 = load ptr, ptr %6, align 8, !tbaa !10
  %52 = getelementptr inbounds nuw %struct.CVodeMemRec, ptr %51, i32 0, i32 23
  %53 = load i32, ptr %52, align 8, !tbaa !230
  %54 = load ptr, ptr %6, align 8, !tbaa !10
  %55 = getelementptr inbounds nuw %struct.CVodeMemRec, ptr %54, i32 0, i32 244
  %56 = load ptr, ptr %55, align 8, !tbaa !164
  %57 = load ptr, ptr %5, align 8, !tbaa !152
  %58 = load ptr, ptr %6, align 8, !tbaa !10
  %59 = getelementptr inbounds nuw %struct.CVodeMemRec, ptr %58, i32 0, i32 73
  %60 = getelementptr inbounds [13 x ptr], ptr %59, i64 0, i64 0
  %61 = load ptr, ptr %60, align 8, !tbaa !152
  %62 = call i32 @N_VScaleVectorArray(i32 noundef %53, ptr noundef %56, ptr noundef %57, ptr noundef %61)
  store i32 %62, ptr %8, align 4, !tbaa !3
  %63 = load i32, ptr %8, align 4, !tbaa !3
  %64 = icmp ne i32 %63, 0
  br i1 %64, label %65, label %66

65:                                               ; preds = %50
  store i32 -28, ptr %3, align 4
  store i32 1, ptr %9, align 4
  br label %75

66:                                               ; preds = %50
  %67 = load ptr, ptr %6, align 8, !tbaa !10
  %68 = getelementptr inbounds nuw %struct.CVodeMemRec, ptr %67, i32 0, i32 137
  store i64 0, ptr %68, align 8, !tbaa !248
  %69 = load ptr, ptr %6, align 8, !tbaa !10
  %70 = getelementptr inbounds nuw %struct.CVodeMemRec, ptr %69, i32 0, i32 138
  store i64 0, ptr %70, align 8, !tbaa !249
  %71 = load ptr, ptr %6, align 8, !tbaa !10
  %72 = getelementptr inbounds nuw %struct.CVodeMemRec, ptr %71, i32 0, i32 151
  store i64 0, ptr %72, align 8, !tbaa !250
  %73 = load ptr, ptr %6, align 8, !tbaa !10
  %74 = getelementptr inbounds nuw %struct.CVodeMemRec, ptr %73, i32 0, i32 41
  store i32 1, ptr %74, align 8, !tbaa !98
  store i32 0, ptr %3, align 4
  store i32 1, ptr %9, align 4
  br label %75

75:                                               ; preds = %66, %65, %31, %26, %19, %12
  call void @llvm.lifetime.end.p0(i64 4, ptr %8) #10
  call void @llvm.lifetime.end.p0(i64 4, ptr %7) #10
  call void @llvm.lifetime.end.p0(i64 8, ptr %6) #10
  %76 = load i32, ptr %3, align 4
  ret i32 %76
}