; Function Attrs: nounwind uwtable
define range(i32 -50, 1) i32 @CVodeQuadSensReInit(ptr noundef captures(address_is_null) %0, ptr noundef %1) local_unnamed_addr #0 {
  %3 = icmp eq ptr %0, null
  br i1 %3, label %4, label %5

4:                                                ; preds = %2
  tail call void (ptr, i32, i32, ptr, ptr, ptr, ...) @cvProcessError(ptr noundef null, i32 noundef -21, i32 noundef 2349, ptr noundef nonnull @__func__.CVodeQuadSensReInit, ptr noundef nonnull @.str, ptr noundef nonnull @.str.4)
  br label %31

5:                                                ; preds = %2
  %6 = getelementptr inbounds nuw i8, ptr %0, i64 140
  %7 = load i32, ptr %6, align 4, !tbaa !166
  %.not = icmp eq i32 %7, 0
  br i1 %.not, label %8, label %9

8:                                                ; preds = %5
  tail call void (ptr, i32, i32, ptr, ptr, ptr, ...) @cvProcessError(ptr noundef nonnull %0, i32 noundef -22, i32 noundef 2357, ptr noundef nonnull @__func__.CVodeQuadSensReInit, ptr noundef nonnull @.str, ptr noundef nonnull @.str.23)
  br label %31

9:                                                ; preds = %5
  %10 = getelementptr inbounds nuw i8, ptr %0, i64 2156
  %11 = load i32, ptr %10, align 4, !tbaa !199
  %12 = icmp eq i32 %11, 0
  br i1 %12, label %13, label %14

13:                                               ; preds = %9
  tail call void (ptr, i32, i32, ptr, ptr, ptr, ...) @cvProcessError(ptr noundef nonnull %0, i32 noundef -50, i32 noundef 2365, ptr noundef nonnull @__func__.CVodeQuadSensReInit, ptr noundef nonnull @.str, ptr noundef nonnull @.str.29)
  br label %31

14:                                               ; preds = %9
  %15 = icmp eq ptr %1, null
  br i1 %15, label %21, label %.preheader

.preheader:                                       ; preds = %14
  %16 = getelementptr inbounds nuw i8, ptr %0, i64 144
  %17 = load i32, ptr %16, align 8, !tbaa !156
  %18 = icmp sgt i32 %17, 0
  %19 = getelementptr inbounds nuw i8, ptr %0, i64 2640
  %20 = load ptr, ptr %19, align 8, !tbaa !103
  br i1 %18, label %.lr.ph, label %._crit_edge

.lr.ph:                                           ; preds = %.preheader
  %wide.trip.count = zext nneg i32 %17 to i64
  br label %22

21:                                               ; preds = %14
  tail call void (ptr, i32, i32, ptr, ptr, ptr, ...) @cvProcessError(ptr noundef nonnull %0, i32 noundef -22, i32 noundef 2373, ptr noundef nonnull @__func__.CVodeQuadSensReInit, ptr noundef nonnull @.str, ptr noundef nonnull @.str.28)
  br label %31

22:                                               ; preds = %.lr.ph, %22
  %indvars.iv = phi i64 [ 0, %.lr.ph ], [ %indvars.iv.next, %22 ]
  %23 = getelementptr inbounds nuw double, ptr %20, i64 %indvars.iv
  store double 1.000000e+00, ptr %23, align 8, !tbaa !69
  %indvars.iv.next = add nuw nsw i64 %indvars.iv, 1
  %exitcond.not = icmp eq i64 %indvars.iv.next, %wide.trip.count
  br i1 %exitcond.not, label %._crit_edge, label %22

._crit_edge:                                      ; preds = %22, %.preheader
  %24 = getelementptr inbounds nuw i8, ptr %0, i64 800
  %25 = load ptr, ptr %24, align 8, !tbaa !160
  %26 = tail call i32 @N_VScaleVectorArray(i32 noundef %17, ptr noundef %20, ptr noundef nonnull %1, ptr noundef %25) #13
  %.not26 = icmp eq i32 %26, 0
  br i1 %.not26, label %27, label %31

27:                                               ; preds = %._crit_edge
  %28 = getelementptr inbounds nuw i8, ptr %0, i64 1616
  %29 = getelementptr inbounds nuw i8, ptr %0, i64 1728
  store i64 0, ptr %29, align 8, !tbaa !197
  %30 = getelementptr inbounds nuw i8, ptr %0, i64 264
  tail call void @llvm.memset.p0.i64(ptr noundef nonnull align 8 dereferenceable(16) %28, i8 0, i64 16, i1 false)
  store i32 1, ptr %30, align 8, !tbaa !198
  br label %31

31:                                               ; preds = %._crit_edge, %27, %21, %13, %8, %4
  %.0 = phi i32 [ -21, %4 ], [ -50, %13 ], [ -22, %21 ], [ 0, %27 ], [ -40, %8 ], [ -28, %._crit_edge ]
  ret i32 %.0
}